(lp0
(dp1
S'right_s0'
p2
F0.10670859288183646
sS'right_s1'
p3
F0.5045052117753641
sS'right_w0'
p4
F-2.4837867670227682
sS'right_w1'
p5
F-0.030387850114884582
sS'right_w2'
p6
F2.9207917787592095
sS'right_e0'
p7
F0.8599494247795918
sS'right_e1'
p8
F0.5237228599046116
sag1
ag1
ag1
ag1
ag1
ag1
a(dp9
g2
F0.42112951033224677
sg3
F-0.07984041809553753
sg4
F-2.6252609155253617
sg5
F-0.09789209553565337
sg6
F2.9857337134659203
sg7
F1.2046907074918385
sg8
F0.6173737204285461
sag9
ag9
ag9
ag9
ag9
a(dp10
g2
F-0.5067768615683516
sg3
F0.3469690105318148
sg4
F-2.1386291003764213
sg5
F-1.515043571465196
sg6
F3.1174806914416027
sg7
F1.6849428715104144
sg8
F1.8556638059331987
sag10
ag10
ag10
ag10
ag10
ag10
ag10
ag10
ag10
ag10
ag10
a(dp11
g2
F0.5428864047367684
sg3
F0.12660675388613937
sg4
F-2.062980590564378
sg5
F-1.191537181457751
sg6
F3.0830660087841975
sg7
F1.883953112387006
sg8
F0.5783722640334682
sag11
ag11
ag11
ag11
ag11
ag11
ag11
ag11
ag11
ag11
ag11
a.